target datalayout = "e-m:e-p270:32:32-p271:32:32-p272:64:64-i64:64-i128:128-f80:128-n8:16:32:64-S128"
target triple = "x86_64-pc-linux-gnu"

%"struct.faiss::MultiIndexQuantizer" = type { %"struct.faiss::Index.base", %"struct.faiss::ProductQuantizer" }
%"struct.faiss::Index.base" = type <{ ptr, i32, [4 x i8], i64, i8, i8, [2 x i8], i32, float }>
%"struct.faiss::ProductQuantizer" = type { %"struct.faiss::Quantizer", i64, i64, i64, i64, i8, i32, %"struct.faiss::ClusteringParameters", ptr, %"class.std::vector.0", %"class.std::vector.0", %"class.std::vector.0", %"class.std::vector.0" }
%"struct.faiss::Quantizer" = type { ptr, i64, i64 }
%"struct.faiss::ClusteringParameters" = type <{ i32, i32, i8, i8, i8, i8, i8, [3 x i8], i32, i32, i32, [4 x i8], i64, i8, i8, [6 x i8] }>
%"class.std::vector.0" = type { %"struct.std::_Vector_base.1" }
%"struct.std::_Vector_base.1" = type { %"struct.std::_Vector_base<float, std::allocator<float>>::_Vector_impl" }
%"struct.std::_Vector_base<float, std::allocator<float>>::_Vector_impl" = type { %"struct.std::_Vector_base<float, std::allocator<float>>::_Vector_impl_data" }
%"struct.std::_Vector_base<float, std::allocator<float>>::_Vector_impl_data" = type { ptr, ptr, ptr }
%"struct.faiss::Index" = type <{ ptr, i32, [4 x i8], i64, i8, i8, [2 x i8], i32, float, [4 x i8] }>

; Function Attrs: mustprogress uwtable
define void @_ZN5faiss19MultiIndexQuantizer5trainElPKf(ptr noundef nonnull align 8 dereferenceable(256) %0, i64 noundef %1, ptr noundef %2) unnamed_addr #1 align 2 {
  %4 = alloca ptr, align 8
  %5 = alloca i64, align 8
  %6 = alloca ptr, align 8
  %7 = alloca i32, align 4
  store ptr %0, ptr %4, align 8, !tbaa !4
  store i64 %1, ptr %5, align 8, !tbaa !11
  store ptr %2, ptr %6, align 8, !tbaa !13
  %8 = load ptr, ptr %4, align 8
  %9 = getelementptr inbounds nuw %"struct.faiss::Index", ptr %8, i32 0, i32 4
  %10 = load i8, ptr %9, align 8, !tbaa !15, !range !21, !noundef !22
  %11 = trunc i8 %10 to i1
  %12 = getelementptr inbounds nuw %"struct.faiss::MultiIndexQuantizer", ptr %8, i32 0, i32 1
  %13 = getelementptr inbounds nuw %"struct.faiss::ProductQuantizer", ptr %12, i32 0, i32 5
  %14 = zext i1 %11 to i8
  store i8 %14, ptr %13, align 8, !tbaa !23
  %15 = getelementptr inbounds nuw %"struct.faiss::MultiIndexQuantizer", ptr %8, i32 0, i32 1
  %16 = load i64, ptr %5, align 8, !tbaa !11
  %17 = load ptr, ptr %6, align 8, !tbaa !13
  call void @_ZN5faiss16ProductQuantizer5trainEmPKf(ptr noundef nonnull align 8 dereferenceable(216) %15, i64 noundef %16, ptr noundef %17)
  %18 = getelementptr inbounds nuw %"struct.faiss::Index", ptr %8, i32 0, i32 5
  store i8 1, ptr %18, align 1, !tbaa !34
  %19 = getelementptr inbounds nuw %"struct.faiss::Index", ptr %8, i32 0, i32 3
  store i64 1, ptr %19, align 8, !tbaa !35
  call void @llvm.lifetime.start.p0(i64 4, ptr %7) #20
  store i32 0, ptr %7, align 4, !tbaa !36
  br label %20

20:                                               ; preds = %35, %3
  %21 = load i32, ptr %7, align 4, !tbaa !36
  %22 = sext i32 %21 to i64
  %23 = getelementptr inbounds nuw %"struct.faiss::MultiIndexQuantizer", ptr %8, i32 0, i32 1
  %24 = getelementptr inbounds nuw %"struct.faiss::ProductQuantizer", ptr %23, i32 0, i32 1
  %25 = load i64, ptr %24, align 8, !tbaa !37
  %26 = icmp ult i64 %22, %25
  br i1 %26, label %28, label %27

27:                                               ; preds = %20
  call void @llvm.lifetime.end.p0(i64 4, ptr %7) #20
  br label %38

28:                                               ; preds = %20
  %29 = getelementptr inbounds nuw %"struct.faiss::MultiIndexQuantizer", ptr %8, i32 0, i32 1
  %30 = getelementptr inbounds nuw %"struct.faiss::ProductQuantizer", ptr %29, i32 0, i32 4
  %31 = load i64, ptr %30, align 8, !tbaa !38
  %32 = getelementptr inbounds nuw %"struct.faiss::Index", ptr %8, i32 0, i32 3
  %33 = load i64, ptr %32, align 8, !tbaa !35
  %34 = mul i64 %33, %31
  store i64 %34, ptr %32, align 8, !tbaa !35
  br label %35

35:                                               ; preds = %28
  %36 = load i32, ptr %7, align 4, !tbaa !36
  %37 = add nsw i32 %36, 1
  store i32 %37, ptr %7, align 4, !tbaa !36
  br label %20, !llvm.loop !39

38:                                               ; preds = %27
  ret void
}