; Function Attrs: mustprogress uwtable
define void @_ZN5faiss19MultiIndexQuantizer5trainElPKf(ptr noundef nonnull align 8 dereferenceable(256) initializes((96, 97)) %0, i64 noundef %1, ptr noundef %2) unnamed_addr #1 align 2 {
  %4 = getelementptr inbounds nuw i8, ptr %0, i64 24
  %5 = load i8, ptr %4, align 8, !tbaa !13, !range !20, !noundef !21
  %6 = getelementptr inbounds nuw i8, ptr %0, i64 40
  %7 = getelementptr inbounds nuw i8, ptr %0, i64 96
  store i8 %5, ptr %7, align 8, !tbaa !22
  tail call void @_ZN5faiss16ProductQuantizer5trainEmPKf(ptr noundef nonnull align 8 dereferenceable(216) %6, i64 noundef %1, ptr noundef %2)
  %8 = getelementptr inbounds nuw i8, ptr %0, i64 25
  store i8 1, ptr %8, align 1, !tbaa !32
  %9 = getelementptr inbounds nuw i8, ptr %0, i64 16
  store i64 1, ptr %9, align 8, !tbaa !33
  %10 = getelementptr inbounds nuw i8, ptr %0, i64 64
  %11 = load i64, ptr %10, align 8, !tbaa !34
  %.not = icmp eq i64 %11, 0
  br i1 %.not, label %14, label %.lr.ph

.lr.ph:                                           ; preds = %3
  %12 = getelementptr inbounds nuw i8, ptr %0, i64 88
  %13 = load i64, ptr %12, align 8, !tbaa !35
  br label %15

._crit_edge:                                      ; preds = %15
  store i64 %17, ptr %9, align 8, !tbaa !33
  br label %14

14:                                               ; preds = %._crit_edge, %3
  ret void

15:                                               ; preds = %.lr.ph, %15
  %indvars.iv = phi i64 [ 0, %.lr.ph ], [ %indvars.iv.next, %15 ]
  %16 = phi i64 [ 1, %.lr.ph ], [ %17, %15 ]
  %17 = mul i64 %16, %13
  %indvars.iv.next = add nuw nsw i64 %indvars.iv, 1
  %exitcond.not = icmp eq i64 %indvars.iv.next, %11
  br i1 %exitcond.not, label %._crit_edge, label %15, !llvm.loop !36
}